; Function Attrs: mustprogress nofree norecurse nosync nounwind willreturn memory(none) uwtable
define hidden noundef double @_ZN6hermes2vm8timeClipEd(double noundef %t) local_unnamed_addr #2 {
entry:
  %0 = tail call double @llvm.fabs.f64(double %t)
  %1 = fcmp ueq double %0, 0x7FF0000000000000
  %cmp = fcmp ogt double %0, 8.640000e+15
  %or.cond = or i1 %1, %cmp
  br i1 %or.cond, label %return, label %if.end

if.end:                                           ; preds = %entry
  %2 = tail call double @llvm.trunc.f64(double %t)
  %add = fadd double %2, 0.000000e+00
  br label %return

return:                                           ; preds = %entry, %if.end
  %retval.0 = phi double [ %add, %if.end ], [ 0x7FF8000000000000, %entry ]
  ret double %retval.0
}